; ModuleID = '4/1484.c'
source_filename = "4/1484.c"
target datalayout = "e-m:e-p270:32:32-p271:32:32-p272:64:64-i64:64-f80:128-n8:16:32:64-S128"
target triple = "x86_64-pc-linux-gnu"

@.str = private unnamed_addr constant [5 x i8] c"%d%d\00", align 1
@.str.1 = private unnamed_addr constant [3 x i8] c"%d\00", align 1
@.str.2 = private unnamed_addr constant [4 x i8] c"%d\0A\00", align 1

; Function Attrs: noinline nounwind uwtable
define dso_local i32 @main() #0 {
  %1 = alloca i32, align 4
  %2 = alloca i32, align 4
  %3 = alloca i32, align 4
  %4 = alloca i32, align 4
  %5 = alloca [100 x [100 x i32]], align 16
  %6 = alloca i32, align 4
  %7 = alloca i32, align 4
  %8 = alloca i32, align 4
  store i32 0, i32* %1, align 4
  store i32 0, i32* %4, align 4
  store i32 0, i32* %6, align 4
  store i32 0, i32* %7, align 4
  store i32 0, i32* %8, align 4
  %9 = call i32 (i8*, ...) @__isoc99_scanf(i8* getelementptr inbounds ([5 x i8], [5 x i8]* @.str, i64 0, i64 0), i32* %2, i32* %3)
  store i32 0, i32* %4, align 4
  br label %10

10:                                               ; preds = %31, %0
  %11 = load i32, i32* %4, align 4
  %12 = load i32, i32* %2, align 4
  %13 = icmp slt i32 %11, %12
  br i1 %13, label %14, label %34

14:                                               ; preds = %10
  store i32 0, i32* %6, align 4
  br label %15

15:                                               ; preds = %27, %14
  %16 = load i32, i32* %6, align 4
  %17 = load i32, i32* %3, align 4
  %18 = icmp slt i32 %16, %17
  br i1 %18, label %19, label %30

19:                                               ; preds = %15
  %20 = load i32, i32* %4, align 4
  %21 = sext i32 %20 to i64
  %22 = getelementptr inbounds [100 x [100 x i32]], [100 x [100 x i32]]* %5, i64 0, i64 %21
  %23 = load i32, i32* %6, align 4
  %24 = sext i32 %23 to i64
  %25 = getelementptr inbounds [100 x i32], [100 x i32]* %22, i64 0, i64 %24
  %26 = call i32 (i8*, ...) @__isoc99_scanf(i8* getelementptr inbounds ([3 x i8], [3 x i8]* @.str.1, i64 0, i64 0), i32* %25)
  br label %27

27:                                               ; preds = %19
  %28 = load i32, i32* %6, align 4
  %29 = add nsw i32 %28, 1
  store i32 %29, i32* %6, align 4
  br label %15

30:                                               ; preds = %15
  br label %31

31:                                               ; preds = %30
  %32 = load i32, i32* %4, align 4
  %33 = add nsw i32 %32, 1
  store i32 %33, i32* %4, align 4
  br label %10

34:                                               ; preds = %10
  store i32 0, i32* %7, align 4
  br label %35

35:                                               ; preds = %184, %34
  %36 = load i32, i32* %7, align 4
  %37 = load i32, i32* %2, align 4
  %38 = load i32, i32* %3, align 4
  %39 = add nsw i32 %37, %38
  %40 = sub nsw i32 %39, 1
  %41 = icmp slt i32 %36, %40
  br i1 %41, label %42, label %187

42:                                               ; preds = %35
  %43 = load i32, i32* %2, align 4
  %44 = load i32, i32* %3, align 4
  %45 = icmp slt i32 %43, %44
  br i1 %45, label %46, label %112

46:                                               ; preds = %42
  %47 = load i32, i32* %7, align 4
  %48 = load i32, i32* %3, align 4
  %49 = sub nsw i32 %48, 1
  %50 = icmp slt i32 %47, %49
  br i1 %50, label %51, label %79

51:                                               ; preds = %46
  store i32 0, i32* %4, align 4
  store i32 0, i32* %6, align 4
  br label %52

52:                                               ; preds = %73, %51
  %53 = load i32, i32* %4, align 4
  %54 = load i32, i32* %2, align 4
  %55 = icmp slt i32 %53, %54
  br i1 %55, label %56, label %60

56:                                               ; preds = %52
  %57 = load i32, i32* %6, align 4
  %58 = load i32, i32* %7, align 4
  %59 = icmp sle i32 %57, %58
  br label %60

60:                                               ; preds = %56, %52
  %61 = phi i1 [ false, %52 ], [ %59, %56 ]
  br i1 %61, label %62, label %78

62:                                               ; preds = %60
  %63 = load i32, i32* %4, align 4
  %64 = sext i32 %63 to i64
  %65 = getelementptr inbounds [100 x [100 x i32]], [100 x [100 x i32]]* %5, i64 0, i64 %64
  %66 = load i32, i32* %7, align 4
  %67 = load i32, i32* %6, align 4
  %68 = sub nsw i32 %66, %67
  %69 = sext i32 %68 to i64
  %70 = getelementptr inbounds [100 x i32], [100 x i32]* %65, i64 0, i64 %69
  %71 = load i32, i32* %70, align 4
  %72 = call i32 (i8*, ...) @printf(i8* getelementptr inbounds ([4 x i8], [4 x i8]* @.str.2, i64 0, i64 0), i32 %71)
  br label %73

73:                                               ; preds = %62
  %74 = load i32, i32* %4, align 4
  %75 = add nsw i32 %74, 1
  store i32 %75, i32* %4, align 4
  %76 = load i32, i32* %6, align 4
  %77 = add nsw i32 %76, 1
  store i32 %77, i32* %6, align 4
  br label %52

78:                                               ; preds = %60
  br label %111

79:                                               ; preds = %46
  %80 = load i32, i32* %7, align 4
  %81 = load i32, i32* %3, align 4
  %82 = sub nsw i32 %81, 1
  %83 = icmp sge i32 %80, %82
  br i1 %83, label %84, label %110

84:                                               ; preds = %79
  %85 = load i32, i32* %3, align 4
  %86 = sub nsw i32 %85, 1
  store i32 %86, i32* %4, align 4
  %87 = load i32, i32* %7, align 4
  %88 = load i32, i32* %3, align 4
  %89 = sub nsw i32 %87, %88
  %90 = add nsw i32 %89, 1
  store i32 %90, i32* %6, align 4
  br label %91

91:                                               ; preds = %104, %84
  %92 = load i32, i32* %6, align 4
  %93 = load i32, i32* %2, align 4
  %94 = icmp slt i32 %92, %93
  br i1 %94, label %95, label %109

95:                                               ; preds = %91
  %96 = load i32, i32* %6, align 4
  %97 = sext i32 %96 to i64
  %98 = getelementptr inbounds [100 x [100 x i32]], [100 x [100 x i32]]* %5, i64 0, i64 %97
  %99 = load i32, i32* %4, align 4
  %100 = sext i32 %99 to i64
  %101 = getelementptr inbounds [100 x i32], [100 x i32]* %98, i64 0, i64 %100
  %102 = load i32, i32* %101, align 4
  %103 = call i32 (i8*, ...) @printf(i8* getelementptr inbounds ([4 x i8], [4 x i8]* @.str.2, i64 0, i64 0), i32 %102)
  br label %104

104:                                              ; preds = %95
  %105 = load i32, i32* %4, align 4
  %106 = add nsw i32 %105, -1
  store i32 %106, i32* %4, align 4
  %107 = load i32, i32* %6, align 4
  %108 = add nsw i32 %107, 1
  store i32 %108, i32* %6, align 4
  br label %91

109:                                              ; preds = %91
  br label %110

110:                                              ; preds = %109, %79
  br label %111

111:                                              ; preds = %110, %78
  br label %183

112:                                              ; preds = %42
  %113 = load i32, i32* %7, align 4
  %114 = load i32, i32* %3, align 4
  %115 = sub nsw i32 %114, 1
  %116 = icmp slt i32 %113, %115
  br i1 %116, label %117, label %145

117:                                              ; preds = %112
  store i32 0, i32* %4, align 4
  store i32 0, i32* %6, align 4
  br label %118

118:                                              ; preds = %139, %117
  %119 = load i32, i32* %4, align 4
  %120 = load i32, i32* %3, align 4
  %121 = icmp slt i32 %119, %120
  br i1 %121, label %122, label %126

122:                                              ; preds = %118
  %123 = load i32, i32* %6, align 4
  %124 = load i32, i32* %7, align 4
  %125 = icmp sle i32 %123, %124
  br label %126

126:                                              ; preds = %122, %118
  %127 = phi i1 [ false, %118 ], [ %125, %122 ]
  br i1 %127, label %128, label %144

128:                                              ; preds = %126
  %129 = load i32, i32* %4, align 4
  %130 = sext i32 %129 to i64
  %131 = getelementptr inbounds [100 x [100 x i32]], [100 x [100 x i32]]* %5, i64 0, i64 %130
  %132 = load i32, i32* %7, align 4
  %133 = load i32, i32* %6, align 4
  %134 = sub nsw i32 %132, %133
  %135 = sext i32 %134 to i64
  %136 = getelementptr inbounds [100 x i32], [100 x i32]* %131, i64 0, i64 %135
  %137 = load i32, i32* %136, align 4
  %138 = call i32 (i8*, ...) @printf(i8* getelementptr inbounds ([4 x i8], [4 x i8]* @.str.2, i64 0, i64 0), i32 %137)
  br label %139

139:                                              ; preds = %128
  %140 = load i32, i32* %4, align 4
  %141 = add nsw i32 %140, 1
  store i32 %141, i32* %4, align 4
  %142 = load i32, i32* %6, align 4
  %143 = add nsw i32 %142, 1
  store i32 %143, i32* %6, align 4
  br label %118

144:                                              ; preds = %126
  br label %182

145:                                              ; preds = %112
  %146 = load i32, i32* %7, align 4
  %147 = load i32, i32* %3, align 4
  %148 = sub nsw i32 %147, 1
  %149 = icmp sge i32 %146, %148
  br i1 %149, label %150, label %181

150:                                              ; preds = %145
  %151 = load i32, i32* %3, align 4
  %152 = sub nsw i32 %151, 1
  store i32 %152, i32* %4, align 4
  %153 = load i32, i32* %7, align 4
  %154 = load i32, i32* %3, align 4
  %155 = sub nsw i32 %153, %154
  %156 = add nsw i32 %155, 1
  store i32 %156, i32* %6, align 4
  br label %157

157:                                              ; preds = %175, %150
  %158 = load i32, i32* %4, align 4
  %159 = icmp sge i32 %158, 0
  br i1 %159, label %160, label %164

160:                                              ; preds = %157
  %161 = load i32, i32* %6, align 4
  %162 = load i32, i32* %2, align 4
  %163 = icmp slt i32 %161, %162
  br label %164

164:                                              ; preds = %160, %157
  %165 = phi i1 [ false, %157 ], [ %163, %160 ]
  br i1 %165, label %166, label %180

166:                                              ; preds = %164
  %167 = load i32, i32* %6, align 4
  %168 = sext i32 %167 to i64
  %169 = getelementptr inbounds [100 x [100 x i32]], [100 x [100 x i32]]* %5, i64 0, i64 %168
  %170 = load i32, i32* %4, align 4
  %171 = sext i32 %170 to i64
  %172 = getelementptr inbounds [100 x i32], [100 x i32]* %169, i64 0, i64 %171
  %173 = load i32, i32* %172, align 4
  %174 = call i32 (i8*, ...) @printf(i8* getelementptr inbounds ([4 x i8], [4 x i8]* @.str.2, i64 0, i64 0), i32 %173)
  br label %175

175:                                              ; preds = %166
  %176 = load i32, i32* %4, align 4
  %177 = add nsw i32 %176, -1
  store i32 %177, i32* %4, align 4
  %178 = load i32, i32* %6, align 4
  %179 = add nsw i32 %178, 1
  store i32 %179, i32* %6, align 4
  br label %157

180:                                              ; preds = %164
  br label %181

181:                                              ; preds = %180, %145
  br label %182

182:                                              ; preds = %181, %144
  br label %183

183:                                              ; preds = %182, %111
  br label %184

184:                                              ; preds = %183
  %185 = load i32, i32* %7, align 4
  %186 = add nsw i32 %185, 1
  store i32 %186, i32* %7, align 4
  br label %35

187:                                              ; preds = %35
  ret i32 0
}

declare dso_local i32 @__isoc99_scanf(i8*, ...) #1

declare dso_local i32 @printf(i8*, ...) #1


!llvm.module.flags = !{!0}
!llvm.ident = !{!1}

!0 = !{i32 1, !"wchar_size", i32 4}
!1 = !{!"clang version 10.0.0-4ubuntu1 "}
